; Function Attrs: mustprogress nounwind uwtable
define internal fastcc noundef i32 @_ZL18SelectOpcodeFromVTIL14SelectTypeKind3EEjN4llvm3EVTENS1_8ArrayRefIjEE(i16 %0, ptr %1, ptr nocapture readonly %2, i64 %3) unnamed_addr #0 {
  %5 = alloca %"struct.llvm::EVT", align 8
  store i16 %0, ptr %5, align 8
  %6 = getelementptr inbounds nuw i8, ptr %5, i64 8
  store ptr %1, ptr %6, align 8
  %.not.i = icmp eq i16 %0, 0
  br i1 %.not.i, label %_ZNK4llvm3EVT16isScalableVectorEv.exit, label %7

7:                                                ; preds = %4
  %8 = add i16 %0, -137
  %spec.select.i.i = icmp ult i16 %8, 53
  br i1 %spec.select.i.i, label %_ZNK4llvm3EVT20getVectorElementTypeEv.exit.thread, label %26

_ZNK4llvm3EVT16isScalableVectorEv.exit:           ; preds = %4
  %9 = call noundef zeroext i1 @_ZNK4llvm3EVT24isExtendedScalableVectorEv(ptr noundef nonnull align 8 dereferenceable(16) %5) #26
  br i1 %9, label %_ZNK4llvm3EVT20getVectorElementTypeEv.exit, label %26

_ZNK4llvm3EVT20getVectorElementTypeEv.exit:       ; preds = %_ZNK4llvm3EVT16isScalableVectorEv.exit
  %10 = call { i16, ptr } @_ZNK4llvm3EVT28getExtendedVectorElementTypeEv(ptr noundef nonnull align 8 dereferenceable(16) %5) #22
  %.pre = load i16, ptr %5, align 8
  %.not.i.i = icmp eq i16 %.pre, 0
  br i1 %.not.i.i, label %17, label %_ZNK4llvm3EVT20getVectorElementTypeEv.exit.thread

_ZNK4llvm3EVT20getVectorElementTypeEv.exit.thread: ; preds = %7, %_ZNK4llvm3EVT20getVectorElementTypeEv.exit
  %11 = phi i16 [ %.pre, %_ZNK4llvm3EVT20getVectorElementTypeEv.exit ], [ %0, %7 ]
  %12 = zext i16 %11 to i64
  %13 = add nsw i64 %12, -1
  %14 = getelementptr inbounds [240 x i16], ptr @_ZZNK4llvm3MVT23getVectorMinNumElementsEvE10NElemTable, i64 0, i64 %13
  %15 = load i16, ptr %14, align 2
  %16 = add i16 %11, -137
  %spec.select.i.i.i.i = icmp ult i16 %16, 53
  %.sroa.2.0.insert.shift.i.i.i.i = select i1 %spec.select.i.i.i.i, i64 4294967296, i64 0
  %.sroa.0.0.insert.ext.i.i.i.i = zext i16 %15 to i64
  %.sroa.0.0.insert.insert.i.i.i.i = or disjoint i64 %.sroa.2.0.insert.shift.i.i.i.i, %.sroa.0.0.insert.ext.i.i.i.i
  br label %_ZNK4llvm3EVT23getVectorMinNumElementsEv.exit

17:                                               ; preds = %_ZNK4llvm3EVT20getVectorElementTypeEv.exit
  %18 = call i64 @_ZNK4llvm3EVT29getExtendedVectorElementCountEv(ptr noundef nonnull align 8 dereferenceable(16) %5) #26
  br label %_ZNK4llvm3EVT23getVectorMinNumElementsEv.exit

_ZNK4llvm3EVT23getVectorMinNumElementsEv.exit:    ; preds = %_ZNK4llvm3EVT20getVectorElementTypeEv.exit.thread, %17
  %.sroa.0.0.in.i.i = phi i64 [ %.sroa.0.0.insert.insert.i.i.i.i, %_ZNK4llvm3EVT20getVectorElementTypeEv.exit.thread ], [ %18, %17 ]
  %.sroa.0.0.extract.trunc.i = trunc i64 %.sroa.0.0.in.i.i to i32
  %19 = add i32 %.sroa.0.0.extract.trunc.i, -2
  %20 = call i32 @llvm.fshl.i32(i32 %19, i32 %19, i32 31)
  %21 = icmp ult i32 %20, 8
  br i1 %21, label %switch.hole_check, label %26

switch.hole_check:                                ; preds = %_ZNK4llvm3EVT23getVectorMinNumElementsEv.exit
  %switch.maskindex = trunc nuw i32 %20 to i8
  %switch.shifted = lshr i8 -117, %switch.maskindex
  %switch.lobit = trunc i8 %switch.shifted to i1
  br i1 %switch.lobit, label %switch.lookup, label %26

switch.lookup:                                    ; preds = %switch.hole_check
  %22 = zext nneg i32 %20 to i64
  %switch.gep = getelementptr inbounds [8 x i64], ptr @switch.table._ZL18SelectOpcodeFromVTIL14SelectTypeKind2EEjN4llvm3EVTENS1_8ArrayRefIjEE, i64 0, i64 %22
  %switch.load = load i64, ptr %switch.gep, align 8
  %.not = icmp ugt i64 %3, %switch.load
  br i1 %.not, label %23, label %26

23:                                               ; preds = %switch.lookup
  %24 = getelementptr inbounds i32, ptr %2, i64 %switch.load
  %25 = load i32, ptr %24, align 4
  br label %26

26:                                               ; preds = %switch.hole_check, %_ZNK4llvm3EVT23getVectorMinNumElementsEv.exit, %7, %23, %switch.lookup, %_ZNK4llvm3EVT16isScalableVectorEv.exit
  %.04 = phi i32 [ 0, %_ZNK4llvm3EVT16isScalableVectorEv.exit ], [ 0, %_ZNK4llvm3EVT23getVectorMinNumElementsEv.exit ], [ %25, %23 ], [ 0, %switch.lookup ], [ 0, %7 ], [ 0, %switch.hole_check ]
  ret i32 %.04
}